(dp0
S'wimbo'
p1
(lp2
Vup
p3
aVup
p4
aVdown
p5
aVup
p6
aVdown
p7
aVdown
p8
aVdown
p9
aVdown
p10
aVdown
p11
aVdown
p12
asS'ron'
p13
(lp14
Vup
p15
aVup
p16
aVup
p17
aVup
p18
aVdown
p19
aVup
p20
aVup
p21
aVup
p22
aVdown
p23
asS'fifi'
p24
(lp25
Vup
p26
aVup
p27
aVup
p28
asS"<script>alert('do you even lift?');</script>"
p29
(lp30
Vup
p31
aVup
p32
aVup
p33
asS'bro'
p34
(lp35
Vup
p36
aVup
p37
aVdown
p38
aVup
p39
aVup
p40
aVup
p41
aVdown
p42
asS'sarahtang'
p43
(lp44
Vup
p45
aVup
p46
aVup
p47
asS'gracearnold'
p48
(lp49
Vup
p50
aVup
p51
aVup
p52
aVup
p53
aVup
p54
aVdown
p55
asS'crowdworker11201'
p56
(lp57
Vup
p58
aVdown
p59
aVdown
p60
aVdown
p61
asS'Rohini'
p62
(lp63
Vdown
p64
aVdown
p65
aVup
p66
aVup
p67
aVdown
p68
aVdown
p69
aVup
p70
aVdown
p71
asS'gaga'
p72
(lp73
Vup
p74
aVup
p75
asS'berne'
p76
(lp77
Vup
p78
aVdown
p79
aVdown
p80
asS'<script>alert("do YOU even lift??");<\\script>'
p81
(lp82
Vup
p83
aVup
p84
aVup
p85
aVup
p86
aVup
p87
asS'lsilb'
p88
(lp89
Vup
p90
asS'indaso'
p91
(lp92
Vup
p93
asS'sonia'
p94
(lp95
Vup
p96
asS'Ronak'
p97
(lp98
Vdown
p99
aVdown
p100
aVdown
p101
aVdown
p102
asS'davidcao'
p103
(lp104
Vup
p105
aVup
p106
aVup
p107
aVup
p108
asS'dylonrm'
p109
(lp110
Vup
p111
aVup
p112
asS'mad'
p113
(lp114
Vup
p115
aVdown
p116
asS'paluter'
p117
(lp118
Vup
p119
aVup
p120
asS'jweng24'
p121
(lp122
Vdown
p123
aVdown
p124
aVup
p125
aVdown
p126
asS'jweng'
p127
(lp128
Vdown
p129
aVdown
p130
aVup
p131
aVup
p132
asS'emhong'
p133
(lp134
Vdown
p135
aVup
p136
aVup
p137
aVdown
p138
asS'berniw'
p139
(lp140
Vup
p141
aVdown
p142
asS'agraffy'
p143
(lp144
Vup
p145
aVup
p146
aVdown
p147
asS'sumitz'
p148
(lp149
Vup
p150
aVup
p151
aVup
p152
aVup
p153
aVdown
p154
aVup
p155
aVup
p156
aVdown
p157
asS'bernie'
p158
(lp159
Vup
p160
aVdown
p161
as.