(dp0
S'ss'
p1
(lp2
Vup
p3
asS'wimbo'
p4
(lp5
Vup
p6
aVdown
p7
aVup
p8
aVup
p9
aVup
p10
aVup
p11
aVup
p12
asS'sumitz'
p13
(lp14
Vdown
p15
aVup
p16
aVdown
p17
aVdown
p18
aVdown
p19
aVdown
p20
aVup
p21
asS'gaga'
p22
(lp23
Vdown
p24
asS'mulanhe'
p25
(lp26
Vup
p27
as.